target datalayout = "e-m:e-p270:32:32-p271:32:32-p272:64:64-i64:64-i128:128-f80:128-n8:16:32:64-S128"
target triple = "x86_64-pc-linux-gnu"

@_ZL19availableLocaleList = internal global ptr null, align 8
@_ZL24availableLocaleListCount = internal global i32 0, align 4

; Function Attrs: mustprogress uwtable
define noundef ptr @_ZN6icu_778Collator19getAvailableLocalesERi(ptr noundef nonnull align 4 dereferenceable(4) %0) #3 align 2 {
  %2 = alloca ptr, align 8
  %3 = alloca i32, align 4
  %4 = alloca ptr, align 8
  store ptr %0, ptr %2, align 8, !tbaa !63
  call void @llvm.lifetime.start.p0(i64 4, ptr %3) #14
  store i32 0, ptr %3, align 4, !tbaa !25
  call void @llvm.lifetime.start.p0(i64 8, ptr %4) #14
  store ptr null, ptr %4, align 8, !tbaa !8
  %5 = load ptr, ptr %2, align 8, !tbaa !63
  store i32 0, ptr %5, align 4, !tbaa !39
  %6 = call noundef signext i8 @_ZN6icu_77L32isAvailableLocaleListInitializedER10UErrorCode(ptr noundef nonnull align 4 dereferenceable(4) %3)
  %7 = icmp ne i8 %6, 0
  br i1 %7, label %8, label %12

8:                                                ; preds = %1
  %9 = load ptr, ptr @_ZL19availableLocaleList, align 8, !tbaa !8
  store ptr %9, ptr %4, align 8, !tbaa !8
  %10 = load i32, ptr @_ZL24availableLocaleListCount, align 4, !tbaa !39
  %11 = load ptr, ptr %2, align 8, !tbaa !63
  store i32 %10, ptr %11, align 4, !tbaa !39
  br label %12

12:                                               ; preds = %8, %1
  %13 = load ptr, ptr %4, align 8, !tbaa !8
  call void @llvm.lifetime.end.p0(i64 8, ptr %4) #14
  call void @llvm.lifetime.end.p0(i64 4, ptr %3) #14
  ret ptr %13
}