; Function Attrs: mustprogress uwtable
define noundef ptr @_ZN6icu_778Collator19getAvailableLocalesERi(ptr noundef nonnull writeonly align 4 captures(none) dereferenceable(4) initializes((0, 4)) %0) local_unnamed_addr #5 align 2 {
  %2 = alloca i32, align 4
  call void @llvm.lifetime.start.p0(i64 4, ptr nonnull %2) #16
  store i32 0, ptr %2, align 4, !tbaa !6
  store i32 0, ptr %0, align 4, !tbaa !33
  %3 = call fastcc noundef signext i8 @_ZN6icu_77L32isAvailableLocaleListInitializedER10UErrorCode(ptr noundef nonnull align 4 dereferenceable(4) %2)
  %.not = icmp eq i8 %3, 0
  br i1 %.not, label %7, label %4

4:                                                ; preds = %1
  %5 = load ptr, ptr @_ZL19availableLocaleList, align 8, !tbaa !37
  %6 = load i32, ptr @_ZL24availableLocaleListCount, align 4, !tbaa !33
  store i32 %6, ptr %0, align 4, !tbaa !33
  br label %7

7:                                                ; preds = %4, %1
  %.0 = phi ptr [ %5, %4 ], [ null, %1 ]
  call void @llvm.lifetime.end.p0(i64 4, ptr nonnull %2) #16
  ret ptr %.0
}